; Function Attrs: mustprogress uwtable
define noundef zeroext i16 @_ZN6icu_7720TransliteratorParser8parseSetERKNS_13UnicodeStringERNS_13ParsePositionER10UErrorCode(ptr noundef nonnull align 8 dereferenceable(498) %0, ptr noundef nonnull align 8 dereferenceable(64) %1, ptr noundef nonnull align 8 dereferenceable(16) %2, ptr noundef nonnull align 4 dereferenceable(4) %3) local_unnamed_addr #1 align 2 personality ptr @__gxx_personality_v0 {
  %5 = tail call noundef ptr @_ZN6icu_777UMemorynwEm(i64 noundef 200) #18
  %6 = icmp eq ptr %5, null
  br i1 %6, label %10, label %7

7:                                                ; preds = %4
  %8 = getelementptr inbounds nuw i8, ptr %0, i64 184
  %9 = load ptr, ptr %8, align 8, !tbaa !74
  invoke void @_ZN6icu_7710UnicodeSetC1ERKNS_13UnicodeStringERNS_13ParsePositionEjPKNS_11SymbolTableER10UErrorCode(ptr noundef nonnull align 8 dereferenceable(200) %5, ptr noundef nonnull align 8 dereferenceable(64) %1, ptr noundef nonnull align 8 dereferenceable(16) %2, i32 noundef 1, ptr noundef %9, ptr noundef nonnull align 4 dereferenceable(4) %3)
          to label %13 unwind label %11

10:                                               ; preds = %4
  store i32 7, ptr %3, align 4, !tbaa !13
  br label %_ZN6icu_7720TransliteratorParser18generateStandInForEPNS_14UnicodeFunctorER10UErrorCode.exit

11:                                               ; preds = %7
  %12 = landingpad { ptr, i32 }
          cleanup
  tail call void @_ZN6icu_777UMemorydlEPv(ptr noundef nonnull %5) #18
  resume { ptr, i32 } %12

13:                                               ; preds = %7
  %14 = tail call noundef nonnull align 8 dereferenceable(200) ptr @_ZN6icu_7710UnicodeSet7compactEv(ptr noundef nonnull align 8 dereferenceable(200) %5)
  %15 = getelementptr inbounds nuw i8, ptr %0, i64 192
  %16 = getelementptr inbounds nuw i8, ptr %0, i64 200
  %17 = load i32, ptr %16, align 8, !tbaa !38
  %18 = icmp sgt i32 %17, 0
  br i1 %18, label %.lr.ph.i, label %._crit_edge.i

.lr.ph.i:                                         ; preds = %13, %21
  %.01324.i = phi i32 [ %22, %21 ], [ 0, %13 ]
  %19 = tail call noundef ptr @_ZNK6icu_777UVector9elementAtEi(ptr noundef nonnull align 8 dereferenceable(40) %15, i32 noundef %.01324.i)
  %20 = icmp eq ptr %19, %5
  br i1 %20, label %25, label %21

21:                                               ; preds = %.lr.ph.i
  %22 = add nuw nsw i32 %.01324.i, 1
  %23 = load i32, ptr %16, align 8, !tbaa !38
  %24 = icmp slt i32 %22, %23
  br i1 %24, label %.lr.ph.i, label %._crit_edge.i, !llvm.loop !75

25:                                               ; preds = %.lr.ph.i
  %26 = getelementptr inbounds nuw i8, ptr %0, i64 96
  %27 = load ptr, ptr %26, align 8, !tbaa !66
  %28 = getelementptr inbounds nuw i8, ptr %27, i64 1162
  %29 = load i16, ptr %28, align 2, !tbaa !31
  %30 = trunc i32 %.01324.i to i16
  %31 = add i16 %29, %30
  br label %_ZN6icu_7720TransliteratorParser18generateStandInForEPNS_14UnicodeFunctorER10UErrorCode.exit

._crit_edge.i:                                    ; preds = %21, %13
  %32 = getelementptr inbounds nuw i8, ptr %0, i64 424
  %33 = load i16, ptr %32, align 8, !tbaa !76
  %34 = getelementptr inbounds nuw i8, ptr %0, i64 426
  %35 = load i16, ptr %34, align 2, !tbaa !77
  %.not.i = icmp ult i16 %33, %35
  br i1 %.not.i, label %40, label %36

36:                                               ; preds = %._crit_edge.i
  %37 = load ptr, ptr %5, align 8, !tbaa !15
  %38 = getelementptr inbounds nuw i8, ptr %37, i64 8
  %39 = load ptr, ptr %38, align 8
  tail call void %39(ptr noundef nonnull align 8 dereferenceable(8) %5) #18
  store i32 65565, ptr %3, align 4, !tbaa !13
  br label %_ZN6icu_7720TransliteratorParser18generateStandInForEPNS_14UnicodeFunctorER10UErrorCode.exit

40:                                               ; preds = %._crit_edge.i
  tail call void @_ZN6icu_777UVector10addElementEPvR10UErrorCode(ptr noundef nonnull align 8 dereferenceable(40) %15, ptr noundef nonnull %5, ptr noundef nonnull align 4 dereferenceable(4) %3)
  %41 = load i32, ptr %3, align 4, !tbaa !13
  %42 = icmp slt i32 %41, 1
  br i1 %42, label %47, label %43

43:                                               ; preds = %40
  %44 = load ptr, ptr %5, align 8, !tbaa !15
  %45 = getelementptr inbounds nuw i8, ptr %44, i64 8
  %46 = load ptr, ptr %45, align 8
  tail call void %46(ptr noundef nonnull align 8 dereferenceable(8) %5) #18
  br label %_ZN6icu_7720TransliteratorParser18generateStandInForEPNS_14UnicodeFunctorER10UErrorCode.exit

47:                                               ; preds = %40
  %48 = load i16, ptr %32, align 8, !tbaa !76
  %49 = add i16 %48, 1
  store i16 %49, ptr %32, align 8, !tbaa !76
  br label %_ZN6icu_7720TransliteratorParser18generateStandInForEPNS_14UnicodeFunctorER10UErrorCode.exit

_ZN6icu_7720TransliteratorParser18generateStandInForEPNS_14UnicodeFunctorER10UErrorCode.exit: ; preds = %47, %43, %36, %25, %10
  %.0 = phi i16 [ 0, %10 ], [ %31, %25 ], [ 0, %36 ], [ %48, %47 ], [ 0, %43 ]
  ret i16 %.0
}